target datalayout = "e-m:e-p270:32:32-p271:32:32-p272:64:64-i64:64-i128:128-f80:128-n8:16:32:64-S128"
target triple = "x86_64-pc-linux-gnu"

%"class.cv::utils::trace::details::Region" = type <{ ptr, i32, [4 x i8] }>
%"class.cv::Rect_" = type { i32, i32, i32, i32 }
%"class.cv::FilterEngine" = type { ptr, i32, i32, i32, %"class.cv::Size_", %"class.cv::Point_", i32, %"class.cv::Size_", %"class.cv::Rect_", i32, i32, i32, i32, %"class.std::vector", i32, %"class.std::vector.0", %"class.std::vector.0", %"class.std::vector.0", %"class.std::vector.0", i32, i32, i32, i32, i32, i32, %"class.std::vector.5", %"struct.cv::Ptr", %"struct.cv::Ptr.10", %"struct.cv::Ptr.14" }
%"class.cv::Point_" = type { i32, i32 }
%"class.cv::Size_" = type { i32, i32 }
%"class.std::vector" = type { %"struct.std::_Vector_base" }
%"struct.std::_Vector_base" = type { %"struct.std::_Vector_base<int, std::allocator<int>>::_Vector_impl" }
%"struct.std::_Vector_base<int, std::allocator<int>>::_Vector_impl" = type { %"struct.std::_Vector_base<int, std::allocator<int>>::_Vector_impl_data" }
%"struct.std::_Vector_base<int, std::allocator<int>>::_Vector_impl_data" = type { ptr, ptr, ptr }
%"class.std::vector.0" = type { %"struct.std::_Vector_base.1" }
%"struct.std::_Vector_base.1" = type { %"struct.std::_Vector_base<unsigned char, std::allocator<unsigned char>>::_Vector_impl" }
%"struct.std::_Vector_base<unsigned char, std::allocator<unsigned char>>::_Vector_impl" = type { %"struct.std::_Vector_base<unsigned char, std::allocator<unsigned char>>::_Vector_impl_data" }
%"struct.std::_Vector_base<unsigned char, std::allocator<unsigned char>>::_Vector_impl_data" = type { ptr, ptr, ptr }
%"class.std::vector.5" = type { %"struct.std::_Vector_base.6" }
%"struct.std::_Vector_base.6" = type { %"struct.std::_Vector_base<unsigned char *, std::allocator<unsigned char *>>::_Vector_impl" }
%"struct.std::_Vector_base<unsigned char *, std::allocator<unsigned char *>>::_Vector_impl" = type { %"struct.std::_Vector_base<unsigned char *, std::allocator<unsigned char *>>::_Vector_impl_data" }
%"struct.std::_Vector_base<unsigned char *, std::allocator<unsigned char *>>::_Vector_impl_data" = type { ptr, ptr, ptr }
%"struct.cv::Ptr" = type { %"class.std::shared_ptr" }
%"class.std::shared_ptr" = type { %"class.std::__shared_ptr" }
%"class.std::__shared_ptr" = type { ptr, %"class.std::__shared_count" }
%"class.std::__shared_count" = type { ptr }
%"struct.cv::Ptr.10" = type { %"class.std::shared_ptr.11" }
%"class.std::shared_ptr.11" = type { %"class.std::__shared_ptr.12" }
%"class.std::__shared_ptr.12" = type { ptr, %"class.std::__shared_count" }
%"struct.cv::Ptr.14" = type { %"class.std::shared_ptr.15" }
%"class.std::shared_ptr.15" = type { %"class.std::__shared_ptr.16" }
%"class.std::__shared_ptr.16" = type { ptr, %"class.std::__shared_count" }
%"class.cv::Mat" = type { i32, i32, i32, i32, ptr, ptr, ptr, ptr, ptr, ptr, %"struct.cv::MatSize", %"struct.cv::MatStep" }
%"struct.cv::MatSize" = type { ptr }
%"struct.cv::MatStep" = type { ptr, [2 x i64] }

; Function Attrs: mustprogress nounwind uwtable
define linkonce_odr hidden void @_ZN2cv5Size_IiEC2Eii(ptr noundef nonnull align 4 dereferenceable(8) %0, i32 noundef %1, i32 noundef %2) unnamed_addr #6 comdat align 2 {
  %4 = alloca ptr, align 8
  %5 = alloca i32, align 4
  %6 = alloca i32, align 4
  store ptr %0, ptr %4, align 8
  store i32 %1, ptr %5, align 4
  store i32 %2, ptr %6, align 4
  %7 = load ptr, ptr %4, align 8
  %8 = getelementptr inbounds %"class.cv::Size_", ptr %7, i32 0, i32 0
  %9 = load i32, ptr %5, align 4
  store i32 %9, ptr %8, align 4
  %10 = getelementptr inbounds %"class.cv::Size_", ptr %7, i32 0, i32 1
  %11 = load i32, ptr %6, align 4
  store i32 %11, ptr %10, align 4
  ret void
}

; Function Attrs: mustprogress nounwind uwtable
define linkonce_odr hidden noundef ptr @_ZN2cv3Mat3ptrEi(ptr noundef nonnull align 8 dereferenceable(96) %0, i32 noundef %1) #6 comdat align 2 {
  %3 = alloca ptr, align 8
  %4 = alloca i32, align 4
  store ptr %0, ptr %3, align 8
  store i32 %1, ptr %4, align 4
  %5 = load ptr, ptr %3, align 8
  %6 = getelementptr inbounds %"class.cv::Mat", ptr %5, i32 0, i32 4
  %7 = load ptr, ptr %6, align 8
  %8 = getelementptr inbounds %"class.cv::Mat", ptr %5, i32 0, i32 11
  %9 = getelementptr inbounds %"struct.cv::MatStep", ptr %8, i32 0, i32 0
  %10 = load ptr, ptr %9, align 8
  %11 = getelementptr inbounds i64, ptr %10, i64 0
  %12 = load i64, ptr %11, align 8
  %13 = load i32, ptr %4, align 4
  %14 = sext i32 %13 to i64
  %15 = mul i64 %12, %14
  %16 = getelementptr inbounds i8, ptr %7, i64 %15
  ret ptr %16
}

; Function Attrs: mustprogress nounwind uwtable
define linkonce_odr hidden noundef i64 @_ZNK2cv7MatStepcvmEv(ptr noundef nonnull align 8 dereferenceable(24) %0) #6 comdat align 2 {
  %2 = alloca ptr, align 8
  store ptr %0, ptr %2, align 8
  %3 = load ptr, ptr %2, align 8
  %4 = getelementptr inbounds %"struct.cv::MatStep", ptr %3, i32 0, i32 1
  %5 = getelementptr inbounds [2 x i64], ptr %4, i64 0, i64 0
  %6 = load i64, ptr %5, align 8
  ret i64 %6
}

; Function Attrs: mustprogress nounwind uwtable
define linkonce_odr hidden noundef ptr @_ZNK2cv3Mat3ptrEi(ptr noundef nonnull align 8 dereferenceable(96) %0, i32 noundef %1) #6 comdat align 2 {
  %3 = alloca ptr, align 8
  %4 = alloca i32, align 4
  store ptr %0, ptr %3, align 8
  store i32 %1, ptr %4, align 4
  %5 = load ptr, ptr %3, align 8
  %6 = getelementptr inbounds %"class.cv::Mat", ptr %5, i32 0, i32 4
  %7 = load ptr, ptr %6, align 8
  %8 = getelementptr inbounds %"class.cv::Mat", ptr %5, i32 0, i32 11
  %9 = getelementptr inbounds %"struct.cv::MatStep", ptr %8, i32 0, i32 0
  %10 = load ptr, ptr %9, align 8
  %11 = getelementptr inbounds i64, ptr %10, i64 0
  %12 = load i64, ptr %11, align 8
  %13 = load i32, ptr %4, align 4
  %14 = sext i32 %13 to i64
  %15 = mul i64 %12, %14
  %16 = getelementptr inbounds i8, ptr %7, i64 %15
  ret ptr %16
}

; Function Attrs: mustprogress uwtable
define linkonce_odr hidden i64 @_ZNK2cv7MatSizeclEv(ptr noundef nonnull align 8 dereferenceable(8) %0) #4 comdat align 2 {
  %2 = alloca %"class.cv::Size_", align 4
  %3 = alloca ptr, align 8
  store ptr %0, ptr %3, align 8
  %4 = load ptr, ptr %3, align 8
  %5 = getelementptr inbounds %"struct.cv::MatSize", ptr %4, i32 0, i32 0
  %6 = load ptr, ptr %5, align 8
  %7 = getelementptr inbounds i32, ptr %6, i64 1
  %8 = load i32, ptr %7, align 4
  %9 = getelementptr inbounds %"struct.cv::MatSize", ptr %4, i32 0, i32 0
  %10 = load ptr, ptr %9, align 8
  %11 = getelementptr inbounds i32, ptr %10, i64 0
  %12 = load i32, ptr %11, align 4
  call void @_ZN2cv5Size_IiEC2Eii(ptr noundef nonnull align 4 dereferenceable(8) %2, i32 noundef %8, i32 noundef %12)
  %13 = load i64, ptr %2, align 4
  ret i64 %13
}

; Function Attrs: mustprogress uwtable
define hidden void @_ZN2cv12cpu_baseline19FilterEngine__applyERNS_12FilterEngineERKNS_3MatERS3_RKNS_5Size_IiEERKNS_6Point_IiEE(ptr noundef nonnull align 8 dereferenceable(304) %0, ptr noundef nonnull align 8 dereferenceable(96) %1, ptr noundef nonnull align 8 dereferenceable(96) %2, ptr noundef nonnull align 4 dereferenceable(8) %3, ptr noundef nonnull align 4 dereferenceable(8) %4) #4 personality ptr @__gxx_personality_v0 {
  %6 = alloca ptr, align 8
  %7 = alloca ptr, align 8
  %8 = alloca ptr, align 8
  %9 = alloca ptr, align 8
  %10 = alloca ptr, align 8
  %11 = alloca %"class.cv::utils::trace::details::Region", align 8
  %12 = alloca %"class.cv::Size_", align 4
  %13 = alloca ptr, align 8
  %14 = alloca i32, align 4
  %15 = alloca i32, align 4
  store ptr %0, ptr %6, align 8
  store ptr %1, ptr %7, align 8
  store ptr %2, ptr %8, align 8
  store ptr %3, ptr %9, align 8
  store ptr %4, ptr %10, align 8
  call void @_ZN2cv5utils5trace7details6RegionC1ERKNS3_21LocationStaticStorageE(ptr noundef nonnull align 8 dereferenceable(12) %11, ptr noundef nonnull align 8 dereferenceable(32) @_ZZN2cv12cpu_baseline19FilterEngine__applyERNS_12FilterEngineERKNS_3MatERS3_RKNS_5Size_IiEERKNS_6Point_IiEEE25__cv_trace_location_fn301)
  %16 = load ptr, ptr %6, align 8
  %17 = load ptr, ptr %9, align 8
  %18 = load ptr, ptr %7, align 8
  %19 = getelementptr inbounds %"class.cv::Mat", ptr %18, i32 0, i32 10
  %20 = invoke i64 @_ZNK2cv7MatSizeclEv(ptr noundef nonnull align 8 dereferenceable(8) %19)
          to label %21 unwind label %66

21:                                               ; preds = %5
  store i64 %20, ptr %12, align 4
  %22 = load ptr, ptr %10, align 8
  %23 = invoke noundef i32 @_ZN2cv12cpu_baseline19FilterEngine__startERNS_12FilterEngineERKNS_5Size_IiEES6_RKNS_6Point_IiEE(ptr noundef nonnull align 8 dereferenceable(304) %16, ptr noundef nonnull align 4 dereferenceable(8) %17, ptr noundef nonnull align 4 dereferenceable(8) %12, ptr noundef nonnull align 4 dereferenceable(8) %22)
          to label %24 unwind label %66

24:                                               ; preds = %21
  %25 = load ptr, ptr %6, align 8
  %26 = getelementptr inbounds %"class.cv::FilterEngine", ptr %25, i32 0, i32 20
  %27 = load i32, ptr %26, align 4
  %28 = load ptr, ptr %10, align 8
  %29 = getelementptr inbounds %"class.cv::Point_", ptr %28, i32 0, i32 1
  %30 = load i32, ptr %29, align 4
  %31 = sub nsw i32 %27, %30
  store i32 %31, ptr %15, align 4
  %32 = load ptr, ptr %6, align 8
  %33 = load ptr, ptr %7, align 8
  %34 = invoke noundef ptr @_ZNK2cv3Mat3ptrEi(ptr noundef nonnull align 8 dereferenceable(96) %33, i32 noundef 0)
          to label %35 unwind label %66

35:                                               ; preds = %24
  %36 = load i32, ptr %15, align 4
  %37 = sext i32 %36 to i64
  %38 = load ptr, ptr %7, align 8
  %39 = getelementptr inbounds %"class.cv::Mat", ptr %38, i32 0, i32 11
  %40 = invoke noundef i64 @_ZNK2cv7MatStepcvmEv(ptr noundef nonnull align 8 dereferenceable(24) %39)
          to label %41 unwind label %66

41:                                               ; preds = %35
  %42 = mul nsw i64 %37, %40
  %43 = getelementptr inbounds i8, ptr %34, i64 %42
  %44 = load ptr, ptr %7, align 8
  %45 = getelementptr inbounds %"class.cv::Mat", ptr %44, i32 0, i32 11
  %46 = invoke noundef i64 @_ZNK2cv7MatStepcvmEv(ptr noundef nonnull align 8 dereferenceable(24) %45)
          to label %47 unwind label %66

47:                                               ; preds = %41
  %48 = trunc i64 %46 to i32
  %49 = load ptr, ptr %6, align 8
  %50 = getelementptr inbounds %"class.cv::FilterEngine", ptr %49, i32 0, i32 22
  %51 = load i32, ptr %50, align 4
  %52 = load ptr, ptr %6, align 8
  %53 = getelementptr inbounds %"class.cv::FilterEngine", ptr %52, i32 0, i32 20
  %54 = load i32, ptr %53, align 4
  %55 = sub nsw i32 %51, %54
  %56 = load ptr, ptr %8, align 8
  %57 = invoke noundef ptr @_ZN2cv3Mat3ptrEi(ptr noundef nonnull align 8 dereferenceable(96) %56, i32 noundef 0)
          to label %58 unwind label %66

58:                                               ; preds = %47
  %59 = load ptr, ptr %8, align 8
  %60 = getelementptr inbounds %"class.cv::Mat", ptr %59, i32 0, i32 11
  %61 = invoke noundef i64 @_ZNK2cv7MatStepcvmEv(ptr noundef nonnull align 8 dereferenceable(24) %60)
          to label %62 unwind label %66

62:                                               ; preds = %58
  %63 = trunc i64 %61 to i32
  %64 = invoke noundef i32 @_ZN2cv12cpu_baseline21FilterEngine__proceedERNS_12FilterEngineEPKhiiPhi(ptr noundef nonnull align 8 dereferenceable(304) %32, ptr noundef %43, i32 noundef %48, i32 noundef %55, ptr noundef %57, i32 noundef %63)
          to label %65 unwind label %66

65:                                               ; preds = %62
  call void @_ZN2cv5utils5trace7details6RegionD2Ev(ptr noundef nonnull align 8 dereferenceable(12) %11) #3
  ret void

66:                                               ; preds = %62, %58, %47, %41, %35, %24, %21, %5
  %67 = landingpad { ptr, i32 }
          cleanup
  %68 = extractvalue { ptr, i32 } %67, 0
  store ptr %68, ptr %13, align 8
  %69 = extractvalue { ptr, i32 } %67, 1
  store i32 %69, ptr %14, align 4
  call void @_ZN2cv5utils5trace7details6RegionD2Ev(ptr noundef nonnull align 8 dereferenceable(12) %11) #3
  br label %70

70:                                               ; preds = %66
  %71 = load ptr, ptr %13, align 8
  %72 = load i32, ptr %14, align 4
  %73 = insertvalue { ptr, i32 } poison, ptr %71, 0
  %74 = insertvalue { ptr, i32 } %73, i32 %72, 1
  resume { ptr, i32 } %74
}