; Function Attrs: mustprogress uwtable
define hidden void @_ZN2cv12cpu_baseline19FilterEngine__applyERNS_12FilterEngineERKNS_3MatERS3_RKNS_5Size_IiEERKNS_6Point_IiEE(ptr noundef nonnull align 8 dereferenceable(304) %0, ptr nocapture noundef nonnull readonly align 8 dereferenceable(96) %1, ptr nocapture noundef nonnull readonly align 8 dereferenceable(96) %2, ptr nocapture noundef nonnull readonly align 4 dereferenceable(8) %3, ptr nocapture noundef nonnull readonly align 4 dereferenceable(8) %4) local_unnamed_addr #3 personality ptr @__gxx_personality_v0 {
  %6 = alloca %"class.cv::utils::trace::details::Region", align 8
  %7 = alloca %"class.cv::Size_", align 8
  call void @_ZN2cv5utils5trace7details6RegionC1ERKNS3_21LocationStaticStorageE(ptr noundef nonnull align 8 dereferenceable(12) %6, ptr noundef nonnull align 8 dereferenceable(32) @_ZZN2cv12cpu_baseline19FilterEngine__applyERNS_12FilterEngineERKNS_3MatERS3_RKNS_5Size_IiEERKNS_6Point_IiEEE25__cv_trace_location_fn301)
  %8 = getelementptr inbounds i8, ptr %1, i64 64
  %9 = load ptr, ptr %8, align 8
  %10 = getelementptr inbounds i8, ptr %9, i64 4
  %11 = load i32, ptr %10, align 4
  %12 = load i32, ptr %9, align 4
  %.sroa.2.0.insert.ext.i = zext i32 %12 to i64
  %.sroa.2.0.insert.shift.i = shl nuw i64 %.sroa.2.0.insert.ext.i, 32
  %.sroa.0.0.insert.ext.i = zext i32 %11 to i64
  %.sroa.0.0.insert.insert.i = or disjoint i64 %.sroa.2.0.insert.shift.i, %.sroa.0.0.insert.ext.i
  store i64 %.sroa.0.0.insert.insert.i, ptr %7, align 8
  %13 = invoke noundef i32 @_ZN2cv12cpu_baseline19FilterEngine__startERNS_12FilterEngineERKNS_5Size_IiEES6_RKNS_6Point_IiEE(ptr noundef nonnull align 8 dereferenceable(304) %0, ptr noundef nonnull align 4 dereferenceable(8) %3, ptr noundef nonnull align 4 dereferenceable(8) %7, ptr noundef nonnull align 4 dereferenceable(8) %4)
          to label %14 unwind label %44

14:                                               ; preds = %5
  %15 = getelementptr inbounds i8, ptr %0, i64 212
  %16 = load i32, ptr %15, align 4
  %17 = getelementptr inbounds i8, ptr %4, i64 4
  %18 = load i32, ptr %17, align 4
  %19 = sub nsw i32 %16, %18
  %20 = getelementptr inbounds i8, ptr %1, i64 16
  %21 = load ptr, ptr %20, align 8
  %22 = sext i32 %19 to i64
  %23 = getelementptr inbounds i8, ptr %1, i64 80
  %24 = load i64, ptr %23, align 8
  %25 = mul nsw i64 %24, %22
  %26 = getelementptr inbounds i8, ptr %21, i64 %25
  %27 = trunc i64 %24 to i32
  %28 = getelementptr inbounds i8, ptr %0, i64 220
  %29 = load i32, ptr %28, align 4
  %30 = sub nsw i32 %29, %16
  %31 = getelementptr inbounds i8, ptr %2, i64 16
  %32 = load ptr, ptr %31, align 8
  %33 = getelementptr inbounds i8, ptr %2, i64 80
  %34 = load i64, ptr %33, align 8
  %35 = trunc i64 %34 to i32
  %36 = invoke noundef i32 @_ZN2cv12cpu_baseline21FilterEngine__proceedERNS_12FilterEngineEPKhiiPhi(ptr noundef nonnull align 8 dereferenceable(304) %0, ptr noundef %26, i32 noundef %27, i32 noundef %30, ptr noundef %32, i32 noundef %35)
          to label %37 unwind label %44

37:                                               ; preds = %14
  %38 = getelementptr inbounds i8, ptr %6, i64 8
  %39 = load i32, ptr %38, align 8
  %.not.i = icmp eq i32 %39, 0
  br i1 %.not.i, label %_ZN2cv5utils5trace7details6RegionD2Ev.exit, label %40

40:                                               ; preds = %37
  invoke void @_ZN2cv5utils5trace7details6Region7destroyEv(ptr noundef nonnull align 8 dereferenceable(12) %6)
          to label %_ZN2cv5utils5trace7details6RegionD2Ev.exit unwind label %41

41:                                               ; preds = %40
  %42 = landingpad { ptr, i32 }
          catch ptr null
  %43 = extractvalue { ptr, i32 } %42, 0
  call void @__clang_call_terminate(ptr %43) #27
  unreachable

_ZN2cv5utils5trace7details6RegionD2Ev.exit:       ; preds = %37, %40
  ret void

44:                                               ; preds = %14, %5
  %45 = landingpad { ptr, i32 }
          cleanup
  call void @_ZN2cv5utils5trace7details6RegionD2Ev(ptr noundef nonnull align 8 dereferenceable(12) %6) #25
  resume { ptr, i32 } %45
}